(lp1
(dp2
S'text'
p3
S'    old.append(data)\r\n'
p4
sS'hasFile'
p5
I00
sa(dp6
S'text'
p7
S'    return data\r\n'
p8
sS'hasFile'
p9
I00
sa(dp10
S'text'
p11
S'    print data\r\n'
p12
sS'hasFile'
p13
I00
sa(dp14
S'text'
p15
S'    try:\r\n'
p16
sS'hasFile'
p17
I00
sa(dp18
S'text'
p19
S'\r\nsite design / logo \xa9 2017 Stack Exchange Inc; user contributions licensed under cc by-sa 3.0 with attribution required. rev 2017.12.22.28257 \r\n'
p20
sS'hasFile'
p21
I00
sa(dp22
S'text'
p23
S'    if data:\r\n'
p24
sS'hasFile'
p25
I00
sa(dp26
S'text'
p27
S'            if time.time() - startTime > 1:\r\n'
p28
sS'hasFile'
p29
I00
sa(dp30
S'text'
p31
S'    data = getData()\r\n'
p32
sS'hasFile'
p33
I00
sa(dp34
S'text'
p35
S'        newData = data\r\n'
p36
sS'hasFile'
p37
I00
sa(dp38
S'text'
p39
(VD:\u005cProgramming\u005cPython\u005cvsControlPC\u005cvsControl\u005ccontrol\u005cvolume.py
tp40
sS'hasFile'
p41
I01
sa(dp42
S'text'
p43
(VD:\u005cProgramming\u005cPython\u005cvsControlPC\u005cvsControl\u005ccontrol\u005cvolume.py
VD:\u005cProgramming\u005cPython\u005cvsControlPC\u005cvsControl\u005ccontrol\u005cvolume.pyc
VD:\u005cProgramming\u005cPython\u005cvsControlPC\u005cvsControl\u005ccontrol\u005c__init__.py
VD:\u005cProgramming\u005cPython\u005cvsControlPC\u005cvsControl\u005ccontrol\u005c__init__.pyc
tp44
sS'hasFile'
p45
I01
sa(dp46
S'text'
p47
S'        "text": text,\r\n'
p48
sS'html'
p49
NsS'hasFile'
p50
I00
sa(dp51
S'text'
p52
S'    win32clipboard.CloseClipboard()\r\n'
p53
sS'html'
p54
NsS'hasFile'
p55
I00
sa(dp56
S'text'
p57
S'    old = read()\r\n'
p58
sS'html'
p59
NsS'hasFile'
p60
I00
sa(dp61
S'text'
p62
S'\r\n    w.show()\r\n    app.exec_()'
p63
sS'html'
p64
NsS'hasFile'
p65
I00
sa(dp66
S'text'
p67
S'    t.do_run = False\r\n'
p68
sS'html'
p69
NsS'hasFile'
p70
I00
sa(dp71
S'text'
p72
S'            save()\r\n'
p73
sS'html'
p74
NsS'hasFile'
p75
I00
sa(dp76
S'text'
p77
S'            getattr(t, "hide").emit()\r\n'
p78
sS'html'
p79
NsS'hasFile'
p80
I00
sa(dp81
S'text'
p82
S'        self.hideSignal.connect(self.hide)\r\n'
p83
sS'html'
p84
NsS'hasFile'
p85
I00
sa(dp86
S'text'
p87
S'    clipboardMonitorThread = QThread()\r\n'
p88
sS'html'
p89
NsS'hasFile'
p90
I00
sa(dp91
S'text'
p92
S'    clipboardMonitorThread.run = clipboard.monitorClipboard\r\n'
p93
sS'html'
p94
NsS'hasFile'
p95
I00
sa(dp96
S'text'
p97
S'\r\n    clipboardMonitorThread.run = clipboard.monitorClipboard\r\n    clipboardMonitorThread.start()\r\n\r\n    app = QApplication(sys.argv)\r\n    app.setQuitOnLastWindowClosed(False)\r\n    main = Main()'
p98
sS'html'
p99
NsS'hasFile'
p100
I00
sa(dp101
S'text'
p102
S'    showPaste = Signal(list)\r\n'
p103
sS'html'
p104
NsS'hasFile'
p105
I00
sa(dp106
S'text'
p107
S'        self.hidePaste.connect(self.hide)\r\n'
p108
sS'html'
p109
NsS'hasFile'
p110
I00
sa(dp111
S'text'
p112
S'        self.buildUI()\r\n'
p113
sS'html'
p114
NsS'hasFile'
p115
I00
sa(dp116
S'text'
p117
S'    if data:\r\n\x00'
p118
sS'html'
p119
NsS'hasFile'
p120
I00
sa(dp121
S'text'
p122
S'    try:\r\n\x00'
p123
sS'html'
p124
NsS'hasFile'
p125
I00
sa(dp126
S'text'
p127
S'    return database.read()\r\n'
p128
sS'html'
p129
NsS'hasFile'
p130
I00
sa(dp131
S'text'
p132
S'    old.append(data)\r\n'
p133
sS'html'
p134
NsS'hasFile'
p135
I00
sa(dp136
S'text'
p137
S'    def pasteRelease():\r\n'
p138
sS'html'
p139
NsS'hasFile'
p140
I00
sa(dp141
S'text'
p142
S'    return data\r\n'
p143
sS'html'
p144
NsS'hasFile'
p145
I00
sa(dp146
S'text'
p147
S'    if data:\r\n'
p148
sS'html'
p149
NsS'hasFile'
p150
I00
sa(dp151
S'text'
p152
S'        newData = data\r\n'
p153
sS'html'
p154
NsS'hasFile'
p155
I00
sa(dp156
S'text'
p157
S'\r\n        print win32gui.GetForegroundWindow() == currentFocus'
p158
sS'html'
p159
NsS'hasFile'
p160
I00
sa(dp161
S'text'
p162
S'            if time.time() - startTime > 1:\r\n'
p163
sS'html'
p164
NsS'hasFile'
p165
I00
sa(dp166
S'text'
p167
S'    def pastePress():\r\n'
p168
sS'html'
p169
NsS'hasFile'
p170
I00
sa(dp171
S'text'
p172
S'    old.append(data)\r\n'
p173
sS'html'
p174
NsS'hasFile'
p175
I00
sa(dp176
S'text'
p177
S'            if time.time() - startTime > 1:\r\n'
p178
sS'html'
p179
NsS'hasFile'
p180
I00
sa(dp181
S'text'
p182
S'    print data\r\n'
p183
sS'html'
p184
NsS'hasFile'
p185
I00
sa(dp186
S'text'
p187
NsS'html'
p188
NsS'hasFile'
p189
I00
sa(dp190
S'text'
p191
S'        "text": text,\r\n'
p192
sS'html'
p193
NsS'hasFile'
p194
I00
sa(dp195
S'text'
p196
S'    try:\r\n'
p197
sS'html'
p198
NsS'hasFile'
p199
I00
sa(dp200
S'text'
p201
S'    old = read()\r\n'
p202
sS'html'
p203
NsS'hasFile'
p204
I00
sa(dp205
S'text'
p206
S'    old.append(data)\r\n'
p207
sS'html'
p208
NsS'hasFile'
p209
I00
sa(dp210
S'text'
p211
S'    if data:\r\n'
p212
sS'html'
p213
NsS'hasFile'
p214
I00
sa(dp215
S'text'
p216
S'            if time.time() - startTime > 1:\r\n'
p217
sS'html'
p218
NsS'hasFile'
p219
I00
sa(dp220
S'text'
p221
S'    if data:\r\n'
p222
sS'html'
p223
NsS'hasFile'
p224
I00
sa(dp225
S'text'
p226
NsS'html'
p227
NsS'hasFile'
p228
I00
sa(dp229
S'text'
p230
S'\r\n        win32gui.SetForegroundWindow(currentFocus)'
p231
sS'html'
p232
NsS'hasFile'
p233
I00
sa(dp234
S'text'
p235
S'        newData = data\r\n'
p236
sS'html'
p237
NsS'hasFile'
p238
I00
sa(dp239
S'text'
p240
S'    data = getData()\r\n'
p241
sS'html'
p242
NsS'hasFile'
p243
I00
sa(dp244
S'text'
p245
S'        newData = data\r\n'
p246
sS'html'
p247
NsS'hasFile'
p248
I00
sa(dp249
S'text'
p250
S'    try:\r\n'
p251
sS'html'
p252
NsS'hasFile'
p253
I00
sa(dp254
S'text'
p255
S'\r\nsite design / logo \xa9 2017 Stack Exchange Inc; user contributions licensed under cc by-sa 3.0 with attribution required. rev 2017.12.22.28257 \r\n'
p256
sS'html'
p257
NsS'hasFile'
p258
I00
sa(dp259
S'text'
p260
S'    try:\r\n'
p261
sS'html'
p262
NsS'hasFile'
p263
I00
sa(dp264
S'text'
p265
S'    data = getData()\r\n'
p266
sS'html'
p267
NsS'hasFile'
p268
I00
sa(dp269
S'text'
p270
S'\r\n'
p271
sS'html'
p272
NsS'hasFile'
p273
I00
sa(dp274
S'text'
p275
S'class Paste(QWidget):\r\n'
p276
sS'html'
p277
NsS'hasFile'
p278
I00
sa(dp279
S'text'
p280
S'            if time.time() - startTime > 1:\r\n'
p281
sS'html'
p282
NsS'hasFile'
p283
I00
sa(dp284
S'text'
p285
S'        newData = data\r\n'
p286
sS'html'
p287
NsS'hasFile'
p288
I00
sa(dp289
S'text'
p290
S'    return data\r\n'
p291
sS'html'
p292
NsS'hasFile'
p293
I00
sa(dp294
S'text'
p295
S'win32process\r\n'
p296
sS'html'
p297
NsS'hasFile'
p298
I00
sa(dp299
S'text'
p300
S'\r\nwin32process'
p301
sS'html'
p302
NsS'hasFile'
p303
I00
sa(dp304
S'text'
p305
S'    return data\r\n'
p306
sS'html'
p307
NsS'hasFile'
p308
I00
sa(dp309
S'text'
p310
S'    try:\r\n'
p311
sS'html'
p312
NsS'hasFile'
p313
I00
sa(dp314
S'text'
p315
S'    return data\r\n'
p316
sS'html'
p317
NsS'hasFile'
p318
I00
sa(dp319
S'text'
p320
S'\r\nsite design / logo \xa9 2017 Stack Exchange Inc; user contributions licensed under cc by-sa 3.0 with attribution required. rev 2017.12.22.28257 \r\n'
p321
sS'html'
p322
NsS'hasFile'
p323
I00
sa(dp324
S'text'
p325
S'    if data:\r\n'
p326
sS'html'
p327
NsS'hasFile'
p328
I00
sa(dp329
S'text'
p330
S'\r\nwin32processv\r\nsite design / logo \xa9 2017 Stack Exchange Inc; user contributions licensed under cc by-sa 3.0 with attribution required. rev 2017.12.22.28257 '
p331
sS'html'
p332
NsS'hasFile'
p333
I00
sa(dp334
S'text'
p335
S'    print data\r\n'
p336
sS'html'
p337
NsS'hasFile'
p338
I00
sa(dp339
S'text'
p340
S'    if data:\r\n'
p341
sS'html'
p342
NsS'hasFile'
p343
I00
sa(dp344
S'text'
p345
S'    def pastePress():\r\n'
p346
sS'html'
p347
NsS'hasFile'
p348
I00
sa(dp349
S'text'
p350
S'\r\n'
p351
sS'html'
p352
NsS'hasFile'
p353
I00
sa(dp354
S'text'
p355
S'    old.append(data)\r\n'
p356
sS'html'
p357
NsS'hasFile'
p358
I00
sa(dp359
S'text'
p360
S'\r\n\r\nwin32processv\r\nsite design / logo \xa9 2017 Stack Exchange Inc; user contributions licensed under cc by-sa 3.0 with attribution required. rev 2017.12.22.28257 '
p361
sS'html'
p362
NsS'hasFile'
p363
I00
sa(dp364
S'text'
p365
S'    try:\r\n'
p366
sS'html'
p367
NsS'hasFile'
p368
I00
sa(dp369
S'text'
p370
S'\r\nsite design / logo \xa9 2017 Stack Exchange Inc; user contributions licensed under cc by-sa 3.0 with attribution required. rev 2017.12.22.28257 \r\n'
p371
sS'html'
p372
NsS'hasFile'
p373
I00
sa(dp374
S'text'
p375
S'    if data:\r\n'
p376
sS'html'
p377
NsS'hasFile'
p378
I00
sa(dp379
S'text'
p380
S'    print data\r\n'
p381
sS'html'
p382
NsS'hasFile'
p383
I00
sa(dp384
S'text'
p385
S'\r\nsite design / logo \xa9 2017 Stack Exchange Inc; user contributions licensed under cc by-sa 3.0 with attribution required. rev 2017.12.22.28257 \r\n'
p386
sS'html'
p387
NsS'hasFile'
p388
I00
sa(dp389
S'text'
p390
S'    if data:\r\n'
p391
sS'html'
p392
NsS'hasFile'
p393
I00
sa(dp394
S'text'
p395
S'            if time.time() - startTime > 1:\r\n'
p396
sS'html'
p397
NsS'hasFile'
p398
I00
sa(dp399
S'text'
p400
S'    print data\r\n'
p401
sS'html'
p402
NsS'hasFile'
p403
I00
sa(dp404
S'text'
p405
S'    try:\r\n'
p406
sS'html'
p407
NsS'hasFile'
p408
I00
sa(dp409
S'text'
p410
S'\r\nsite design / logo \xa9 2017 Stack Exchange Inc; user contributions licensed under cc by-sa 3.0 with attribution required. rev 2017.12.22.28257 \r\n'
p411
sS'html'
p412
NsS'hasFile'
p413
I00
sa(dp414
S'text'
p415
S'    print data\r\n'
p416
sS'html'
p417
NsS'hasFile'
p418
I00
sa(dp419
S'text'
p420
S'\r\nsite design / logo \xa9 2017 Stack Exchange Inc; user contributions licensed under cc by-sa 3.0 with attribution required. rev 2017.12.22.28257 \r\n'
p421
sS'html'
p422
NsS'hasFile'
p423
I00
sa(dp424
S'text'
p425
S'    return data\r\n'
p426
sS'html'
p427
NsS'hasFile'
p428
I00
sa(dp429
S'text'
p430
S'    print data\r\n'
p431
sS'html'
p432
NsS'hasFile'
p433
I00
sa(dp434
S'text'
p435
S'    try:\r\n'
p436
sS'html'
p437
NsS'hasFile'
p438
I00
sa(dp439
S'text'
p440
S'\r\nsite design / logo \xa9 2017 Stack Exchange Inc; user contributions licensed under cc by-sa 3.0 with attribution required. rev 2017.12.22.28257 \r\n'
p441
sS'html'
p442
NsS'hasFile'
p443
I00
sa(dp444
S'text'
p445
S'    return data\r\n'
p446
sS'html'
p447
NsS'hasFile'
p448
I00
sa(dp449
S'text'
p450
S'    if data:\r\n'
p451
sS'html'
p452
NsS'hasFile'
p453
I00
sa(dp454
S'text'
p455
S'    return data\r\n'
p456
sS'html'
p457
NsS'hasFile'
p458
I00
sa(dp459
S'text'
p460
S'\r\n    for code in keys:\r\n        win32api.keybd_event(code, 0, win32con.KEYEVENTF_KEYUP, 0)'
p461
sS'html'
p462
NsS'hasFile'
p463
I00
sa(dp464
S'text'
p465
S'            if time.time() - startTime > 1:\r\n'
p466
sS'html'
p467
NsS'hasFile'
p468
I00
sa(dp469
S'text'
p470
S'    data = getData()\r\n'
p471
sS'html'
p472
NsS'hasFile'
p473
I00
sa(dp474
S'text'
p475
S'    return data\r\n'
p476
sS'html'
p477
NsS'hasFile'
p478
I00
sa(dp479
S'text'
p480
S'    if data:\r\n'
p481
sS'html'
p482
NsS'hasFile'
p483
I00
sa(dp484
S'text'
p485
S'    old.append(data)\r\n'
p486
sS'html'
p487
NsS'hasFile'
p488
I00
sa(dp489
S'text'
p490
S'    try:\r\n'
p491
sS'html'
p492
NsS'hasFile'
p493
I00
sa(dp494
S'text'
p495
S'            if time.time() - startTime > 1:\r\n'
p496
sS'html'
p497
NsS'hasFile'
p498
I00
sa(dp499
S'text'
p500
S'\r\n    data = getData()\r\n    return data\r\n    if data:\r\n    if data:\r\n    if data:\r\n    if data:\r\n    if data:\r\nv    if data:\r\n    if data:\r\n    if data:\r\n    if data:\r\n    old.append(data)\r\n    try:\r\n            if time.time() - startTime > 1:'
p501
sS'html'
p502
NsS'hasFile'
p503
I00
sa.